; Function Attrs: mustprogress nofree norecurse nosync nounwind willreturn memory(readwrite, inaccessiblemem: none) uwtable
define hidden void @_ZN2dd11pdd_manager4zeroEv(ptr dead_on_unwind noalias writable writeonly sret(%"class.dd::pdd") align 8 captures(none) initializes((0, 4), (8, 16)) %0, ptr noundef nonnull align 8 dereferenceable(952) %1) local_unnamed_addr #10 align 2 {
  store i32 0, ptr %0, align 8, !tbaa !119
  %3 = getelementptr inbounds nuw i8, ptr %0, i64 8
  store ptr %1, ptr %3, align 8, !tbaa !122
  %4 = load ptr, ptr %1, align 8, !tbaa !91
  %5 = load i32, ptr %4, align 4
  %6 = and i32 %5, 1023
  %.not.i.i = icmp eq i32 %6, 1023
  br i1 %.not.i.i, label %_ZN2dd3pddC2EjPNS_11pdd_managerE.exit, label %7

7:                                                ; preds = %2
  %8 = add i32 %5, 1
  %9 = and i32 %8, 1023
  %10 = and i32 %5, -1024
  %11 = or disjoint i32 %9, %10
  store i32 %11, ptr %4, align 4
  br label %_ZN2dd3pddC2EjPNS_11pdd_managerE.exit

_ZN2dd3pddC2EjPNS_11pdd_managerE.exit:            ; preds = %2, %7
  ret void
}